; Function Attrs: mustprogress nofree norecurse nosync nounwind willreturn memory(argmem: readwrite) uwtable
define void @_ZN6icu_7525FCDUTF16CollationIterator16switchToBackwardEv(ptr nocapture noundef nonnull align 8 dereferenceable(521) %this) local_unnamed_addr #9 align 2 {
entry:
  %checkDir = getelementptr inbounds i8, ptr %this, i64 520
  %0 = load i8, ptr %checkDir, align 8
  %cmp = icmp sgt i8 %0, 0
  br i1 %cmp, label %if.then, label %if.else7

if.then:                                          ; preds = %entry
  %pos = getelementptr inbounds i8, ptr %this, i64 400
  %1 = load ptr, ptr %pos, align 8
  %segmentLimit = getelementptr inbounds i8, ptr %this, i64 432
  store ptr %1, ptr %segmentLimit, align 8
  %limit = getelementptr inbounds i8, ptr %this, i64 408
  store ptr %1, ptr %limit, align 8
  %segmentStart = getelementptr inbounds i8, ptr %this, i64 424
  %2 = load ptr, ptr %segmentStart, align 8
  %cmp3 = icmp eq ptr %1, %2
  br i1 %cmp3, label %if.then4, label %if.end21

if.then4:                                         ; preds = %if.then
  %rawStart = getelementptr inbounds i8, ptr %this, i64 416
  %3 = load ptr, ptr %rawStart, align 8
  %start = getelementptr inbounds i8, ptr %this, i64 392
  store ptr %3, ptr %start, align 8
  br label %if.end21

if.else7:                                         ; preds = %entry
  %start8 = getelementptr inbounds i8, ptr %this, i64 392
  %4 = load ptr, ptr %start8, align 8
  %segmentStart9 = getelementptr inbounds i8, ptr %this, i64 424
  %5 = load ptr, ptr %segmentStart9, align 8
  %cmp10 = icmp eq ptr %4, %5
  br i1 %cmp10, label %if.end17, label %if.else12

if.else12:                                        ; preds = %if.else7
  %segmentLimit14 = getelementptr inbounds i8, ptr %this, i64 432
  store ptr %5, ptr %segmentLimit14, align 8
  %limit15 = getelementptr inbounds i8, ptr %this, i64 408
  store ptr %5, ptr %limit15, align 8
  %pos16 = getelementptr inbounds i8, ptr %this, i64 400
  store ptr %5, ptr %pos16, align 8
  br label %if.end17

if.end17:                                         ; preds = %if.else7, %if.else12
  %rawStart18 = getelementptr inbounds i8, ptr %this, i64 416
  %6 = load ptr, ptr %rawStart18, align 8
  store ptr %6, ptr %start8, align 8
  br label %if.end21

if.end21:                                         ; preds = %if.then, %if.then4, %if.end17
  %.sink = phi i8 [ -1, %if.then4 ], [ -1, %if.end17 ], [ 0, %if.then ]
  store i8 %.sink, ptr %checkDir, align 8
  ret void
}